target datalayout = "e-m:e-p270:32:32-p271:32:32-p272:64:64-i64:64-i128:128-f80:128-n8:16:32:64-S128"
target triple = "x86_64-pc-linux-gnu"

%"class.casadi::Sparsity" = type { %"class.casadi::SharedObject" }
%"class.casadi::SharedObject" = type { ptr }
%"struct.std::pair" = type { i64, i64 }
%"class.casadi::MX" = type { %"class.casadi::SharedObject" }

@_ZN6casadi2MXC1EPNS_6MXNodeEbbbb = unnamed_addr alias void (ptr, ptr, i1, i1, i1, i1), ptr @_ZN6casadi2MXC2EPNS_6MXNodeEbbbb

; Function Attrs: mustprogress uwtable
define void @_ZN6casadi2MX6createEPNS_6MXNodeE(ptr dead_on_unwind noalias writable sret(%"class.casadi::MX") align 8 %0, ptr noundef %1) #4 align 2 {
  %3 = alloca ptr, align 8
  %4 = alloca ptr, align 8
  store ptr %0, ptr %3, align 8
  store ptr %1, ptr %4, align 8
  %5 = load ptr, ptr %4, align 8
  call void @_ZN6casadi2MXC1EPNS_6MXNodeEbbbb(ptr noundef nonnull align 8 dereferenceable(8) %0, ptr noundef %5, i1 noundef zeroext false, i1 noundef zeroext false, i1 noundef zeroext false, i1 noundef zeroext false)
  ret void
}

; Function Attrs: mustprogress nounwind uwtable
define linkonce_odr hidden noundef double @_ZNSt14numeric_limitsIdE8infinityEv() #5 comdat align 2 {
  ret double 0x7FF0000000000000
}

; Function Attrs: mustprogress nounwind uwtable
define linkonce_odr hidden void @_ZN6casadi8SparsityD2Ev(ptr noundef nonnull align 8 dereferenceable(8) %0) unnamed_addr #5 comdat align 2 {
  %2 = alloca ptr, align 8
  store ptr %0, ptr %2, align 8
  %3 = load ptr, ptr %2, align 8
  call void @_ZN6casadi12SharedObjectD2Ev(ptr noundef nonnull align 8 dereferenceable(8) %3) #3
  ret void
}

; Function Attrs: mustprogress uwtable
define void @_ZN6casadi2MX3infERKNS_8SparsityE(ptr dead_on_unwind noalias writable sret(%"class.casadi::MX") align 8 %0, ptr noundef nonnull align 8 dereferenceable(8) %1) #4 align 2 {
  %3 = alloca ptr, align 8
  %4 = alloca ptr, align 8
  store ptr %0, ptr %3, align 8
  store ptr %1, ptr %4, align 8
  %5 = load ptr, ptr %4, align 8
  %6 = call noundef double @_ZNSt14numeric_limitsIdE8infinityEv() #3
  %7 = call noundef ptr @_ZN6casadi10ConstantMX6createERKNS_8SparsityEd(ptr noundef nonnull align 8 dereferenceable(8) %5, double noundef %6)
  call void @_ZN6casadi2MX6createEPNS_6MXNodeE(ptr dead_on_unwind writable sret(%"class.casadi::MX") align 8 %0, ptr noundef %7)
  ret void
}

; Function Attrs: mustprogress uwtable
define void @_ZN6casadi2MX3infExx(ptr dead_on_unwind noalias writable sret(%"class.casadi::MX") align 8 %0, i64 noundef %1, i64 noundef %2) #4 align 2 personality ptr @__gxx_personality_v0 {
  %4 = alloca ptr, align 8
  %5 = alloca i64, align 8
  %6 = alloca i64, align 8
  %7 = alloca %"class.casadi::Sparsity", align 8
  %8 = alloca ptr, align 8
  %9 = alloca i32, align 4
  store ptr %0, ptr %4, align 8
  store i64 %1, ptr %5, align 8
  store i64 %2, ptr %6, align 8
  %10 = load i64, ptr %5, align 8
  %11 = load i64, ptr %6, align 8
  call void @_ZN6casadi8Sparsity5denseExx(ptr dead_on_unwind writable sret(%"class.casadi::Sparsity") align 8 %7, i64 noundef %10, i64 noundef %11)
  invoke void @_ZN6casadi2MX3infERKNS_8SparsityE(ptr dead_on_unwind writable sret(%"class.casadi::MX") align 8 %0, ptr noundef nonnull align 8 dereferenceable(8) %7)
          to label %12 unwind label %13

12:                                               ; preds = %3
  call void @_ZN6casadi8SparsityD2Ev(ptr noundef nonnull align 8 dereferenceable(8) %7) #3
  ret void

13:                                               ; preds = %3
  %14 = landingpad { ptr, i32 }
          cleanup
  %15 = extractvalue { ptr, i32 } %14, 0
  store ptr %15, ptr %8, align 8
  %16 = extractvalue { ptr, i32 } %14, 1
  store i32 %16, ptr %9, align 4
  call void @_ZN6casadi8SparsityD2Ev(ptr noundef nonnull align 8 dereferenceable(8) %7) #3
  br label %17

17:                                               ; preds = %13
  %18 = load ptr, ptr %8, align 8
  %19 = load i32, ptr %9, align 4
  %20 = insertvalue { ptr, i32 } poison, ptr %18, 0
  %21 = insertvalue { ptr, i32 } %20, i32 %19, 1
  resume { ptr, i32 } %21
}

; Function Attrs: mustprogress uwtable
define void @_ZN6casadi2MX3infERKSt4pairIxxE(ptr dead_on_unwind noalias writable sret(%"class.casadi::MX") align 8 %0, ptr noundef nonnull align 8 dereferenceable(16) %1) #4 align 2 {
  %3 = alloca ptr, align 8
  %4 = alloca ptr, align 8
  store ptr %0, ptr %3, align 8
  store ptr %1, ptr %4, align 8
  %5 = load ptr, ptr %4, align 8
  %6 = getelementptr inbounds %"struct.std::pair", ptr %5, i32 0, i32 0
  %7 = load i64, ptr %6, align 8
  %8 = load ptr, ptr %4, align 8
  %9 = getelementptr inbounds %"struct.std::pair", ptr %8, i32 0, i32 1
  %10 = load i64, ptr %9, align 8
  call void @_ZN6casadi2MX3infExx(ptr dead_on_unwind writable sret(%"class.casadi::MX") align 8 %0, i64 noundef %7, i64 noundef %10)
  ret void
}